Certificate:
    Data:
        Version: 3 (0x2)
        Serial Number: 4096 (0x1000)
        Signature Algorithm: sha256WithRSAEncryption
        Issuer: C=US, ST=Michigan, L=Detroit, O=DemoCA, OU=CA, CN=Chuck Bardel/emailAddress=chuck.bardel@gmail.com
        Validity
            Not Before: Dec  4 19:03:20 2020 GMT
            Not After : Dec  4 19:03:20 2021 GMT
        Subject: C=US, ST=Michigan, L=Detroit, O=example.com, OU=Internet, CN=example.com/emailAddress=admin@example.com
        Subject Public Key Info:
            Public Key Algorithm: rsaEncryption
                RSA Public-Key: (2048 bit)
                Modulus:
                    00:b1:ec:32:8b:cf:c4:30:32:bf:16:dd:07:d7:7d:
                    9c:aa:52:f4:f1:e6:07:7f:d8:33:0d:a1:81:5e:95:
                    a6:a4:d8:ca:91:a4:57:80:3e:3e:dc:f1:28:b1:b1:
                    5a:f1:dd:0a:ca:4f:d7:43:59:35:01:54:54:f4:5e:
                    55:78:6a:4b:ec:b7:80:b0:ce:27:42:37:d4:07:23:
                    30:62:ee:56:f6:2e:6d:c3:44:90:39:56:e8:f1:fd:
                    2a:e6:e2:75:3c:99:1e:b4:27:31:90:8b:c2:ea:06:
                    bc:a5:16:43:0d:84:ba:80:19:4e:62:80:68:7e:9e:
                    c8:75:24:da:05:8d:16:66:09:94:c1:09:51:ad:3c:
                    87:06:23:a5:19:2b:90:b2:3e:cc:7f:8f:86:9d:2e:
                    3d:4f:2e:9b:f4:38:11:20:4c:f8:31:1d:4f:35:80:
                    0d:d6:d7:8e:fc:71:14:02:60:b2:d7:02:98:d1:8e:
                    aa:a7:ae:db:27:db:eb:e7:3e:50:53:ff:19:f9:62:
                    d4:93:8b:07:73:a9:9b:09:33:18:4d:27:8d:75:46:
                    4d:13:6a:77:98:f4:8d:27:0f:4a:dd:5b:3f:13:98:
                    20:fd:2d:d7:04:4b:b9:74:93:59:76:b0:ca:0d:7d:
                    c4:9b:a5:a9:d8:63:73:30:0a:da:03:58:09:ef:49:
                    5a:c5
                Exponent: 65537 (0x10001)
        X509v3 extensions:
            X509v3 Basic Constraints: 
                CA:FALSE
            Netscape Comment: 
                OpenSSL Generated Certificate
            X509v3 Subject Key Identifier: 
                E8:2D:34:33:6A:A0:3C:B6:FA:07:CF:2F:05:D7:0C:63:B0:87:1F:2C
            X509v3 Authority Key Identifier: 
                keyid:5A:68:49:C6:52:21:C0:A0:12:14:10:EE:58:69:F6:BD:8B:79:0E:A6

    Signature Algorithm: sha256WithRSAEncryption
         91:f3:c2:58:07:fe:79:62:fe:bf:ea:26:7c:3e:fc:4a:30:56:
         b8:d0:48:5c:8a:ea:0b:6a:2a:87:48:34:e5:a9:0d:4b:50:a0:
         55:5f:d0:09:ec:e9:70:e6:1a:75:9b:51:a0:b5:96:ef:c1:db:
         47:4c:6f:df:75:0a:81:0f:83:74:df:6f:90:9a:d2:be:e7:f7:
         70:3b:d0:b5:2f:dd:23:5a:d3:7a:bd:4f:23:63:be:dc:84:8e:
         98:5a:4f:47:8a:8a:7e:d4:56:41:2f:7f:bf:39:d3:dd:14:c9:
         8c:f1:bb:d4:5b:53:83:2b:f7:f7:2e:a8:7e:ec:9c:82:0b:25:
         bd:ab:15:ce:9d:af:95:a2:0c:48:8e:da:23:f0:f6:08:65:db:
         59:27:d1:f1:00:04:4a:b3:7d:0e:69:38:92:73:65:16:65:40:
         62:7d:2e:33:68:28:05:b1:b8:d7:79:06:81:d4:d1:c0:20:2f:
         59:08:3a:f5:82:ae:9f:e5:cb:8e:8a:1d:76:00:4c:c1:ed:c9:
         bd:a1:3f:55:87:7d:86:5a:e1:75:cd:06:d3:12:f8:8c:df:7c:
         26:c1:82:49:0a:ef:86:b4:7e:af:f8:d5:c7:5b:77:bc:fc:f9:
         f3:26:d7:a3:1a:36:7c:5f:35:19:97:7f:2b:29:c9:ae:40:a3:
         aa:10:5d:3e
-----BEGIN CERTIFICATE-----
MIIEGjCCAwKgAwIBAgICEAAwDQYJKoZIhvcNAQELBQAwgY4xCzAJBgNVBAYTAlVT
MREwDwYDVQQIDAhNaWNoaWdhbjEQMA4GA1UEBwwHRGV0cm9pdDEPMA0GA1UECgwG
RGVtb0NBMQswCQYDVQQLDAJDQTEVMBMGA1UEAwwMQ2h1Y2sgQmFyZGVsMSUwIwYJ
KoZIhvcNAQkBFhZjaHVjay5iYXJkZWxAZ21haWwuY29tMB4XDTIwMTIwNDE5MDMy
MFoXDTIxMTIwNDE5MDMyMFowgZMxCzAJBgNVBAYTAlVTMREwDwYDVQQIDAhNaWNo
aWdhbjEQMA4GA1UEBwwHRGV0cm9pdDEUMBIGA1UECgwLZXhhbXBsZS5jb20xETAP
BgNVBAsMCEludGVybmV0MRQwEgYDVQQDDAtleGFtcGxlLmNvbTEgMB4GCSqGSIb3
DQEJARYRYWRtaW5AZXhhbXBsZS5jb20wggEiMA0GCSqGSIb3DQEBAQUAA4IBDwAw
ggEKAoIBAQCx7DKLz8QwMr8W3QfXfZyqUvTx5gd/2DMNoYFelaak2MqRpFeAPj7c
8SixsVrx3QrKT9dDWTUBVFT0XlV4akvst4CwzidCN9QHIzBi7lb2Lm3DRJA5Vujx
/Srm4nU8mR60JzGQi8LqBrylFkMNhLqAGU5igGh+nsh1JNoFjRZmCZTBCVGtPIcG
I6UZK5CyPsx/j4adLj1PLpv0OBEgTPgxHU81gA3W1478cRQCYLLXApjRjqqnrtsn
2+vnPlBT/xn5YtSTiwdzqZsJMxhNJ411Rk0TaneY9I0nD0rdWz8TmCD9LdcES7l0
k1l2sMoNfcSbpanYY3MwCtoDWAnvSVrFAgMBAAGjezB5MAkGA1UdEwQCMAAwLAYJ
YIZIAYb4QgENBB8WHU9wZW5TU0wgR2VuZXJhdGVkIENlcnRpZmljYXRlMB0GA1Ud
DgQWBBToLTQzaqA8tvoHzy8F1wxjsIcfLDAfBgNVHSMEGDAWgBRaaEnGUiHAoBIU
EO5Yafa9i3kOpjANBgkqhkiG9w0BAQsFAAOCAQEAkfPCWAf+eWL+v+omfD78SjBW
uNBIXIrqC2oqh0g05akNS1CgVV/QCezpcOYadZtRoLWW78HbR0xv33UKgQ+DdN9v
kJrSvuf3cDvQtS/dI1rTer1PI2O+3ISOmFpPR4qKftRWQS9/vznT3RTJjPG71FtT
gyv39y6ofuycggslvasVzp2vlaIMSI7aI/D2CGXbWSfR8QAESrN9Dmk4knNlFmVA
Yn0uM2goBbG413kGgdTRwCAvWQg69YKun+XLjooddgBMwe3JvaE/VYd9hlrhdc0G
0xL4jN98JsGCSQrvhrR+r/jVx1t3vPz58ybXoxo2fF81GZd/KynJrkCjqhBdPg==
-----END CERTIFICATE-----
